; Function Attrs: mustprogress nounwind uwtable
define hidden void @_ZN3p2t5SweepD2Ev(ptr noundef nonnull readonly align 8 captures(none) dereferenceable(24) %0) unnamed_addr #12 align 2 personality ptr @__gxx_personality_v0 {
  %2 = load ptr, ptr %0, align 8
  %3 = getelementptr inbounds nuw i8, ptr %0, i64 8
  %4 = load ptr, ptr %3, align 8
  %.not7 = icmp eq ptr %2, %4
  br i1 %.not7, label %._crit_edge, label %.lr.ph

._crit_edge.loopexit:                             ; preds = %15
  %.pre = load ptr, ptr %0, align 8
  br label %._crit_edge

._crit_edge:                                      ; preds = %._crit_edge.loopexit, %1
  %5 = phi ptr [ %.pre, %._crit_edge.loopexit ], [ %2, %1 ]
  %.not.i.i.i = icmp eq ptr %5, null
  br i1 %.not.i.i.i, label %_ZNSt6vectorIPN3p2t4NodeESaIS2_EED2Ev.exit, label %6

6:                                                ; preds = %._crit_edge
  %7 = getelementptr inbounds nuw i8, ptr %0, i64 16
  %8 = load ptr, ptr %7, align 8
  %9 = ptrtoint ptr %8 to i64
  %10 = ptrtoint ptr %5 to i64
  %11 = sub i64 %9, %10
  tail call void @_ZdlPvm(ptr noundef nonnull %5, i64 noundef %11) #19
  br label %_ZNSt6vectorIPN3p2t4NodeESaIS2_EED2Ev.exit

_ZNSt6vectorIPN3p2t4NodeESaIS2_EED2Ev.exit:       ; preds = %._crit_edge, %6
  ret void

.lr.ph:                                           ; preds = %1, %15
  %.sroa.04.08 = phi ptr [ %16, %15 ], [ %2, %1 ]
  %12 = load ptr, ptr %.sroa.04.08, align 8
  %13 = icmp eq ptr %12, null
  br i1 %13, label %15, label %14

14:                                               ; preds = %.lr.ph
  tail call void @_ZdlPvm(ptr noundef nonnull %12, i64 noundef 40) #19
  br label %15

15:                                               ; preds = %14, %.lr.ph
  %16 = getelementptr inbounds nuw i8, ptr %.sroa.04.08, i64 8
  %.not = icmp eq ptr %16, %4
  br i1 %.not, label %._crit_edge.loopexit, label %.lr.ph
}